; ModuleID = '8/581.c'
source_filename = "8/581.c"
target datalayout = "e-m:e-p270:32:32-p271:32:32-p272:64:64-i64:64-f80:128-n8:16:32:64-S128"
target triple = "x86_64-pc-linux-gnu"

@.str = private unnamed_addr constant [5 x i8] c"%d%d\00", align 1
@.str.1 = private unnamed_addr constant [3 x i8] c"%d\00", align 1
@.str.2 = private unnamed_addr constant [4 x i8] c"%d \00", align 1
@.str.3 = private unnamed_addr constant [4 x i8] c" %d\00", align 1
@.str.4 = private unnamed_addr constant [2 x i8] c"\0A\00", align 1

; Function Attrs: noinline nounwind uwtable
define dso_local void @main() #0 {
  %1 = alloca [50 x i32], align 16
  %2 = alloca [50 x i32], align 16
  %3 = alloca i32, align 4
  %4 = alloca i32, align 4
  %5 = alloca i32, align 4
  %6 = alloca i32, align 4
  %7 = alloca i32, align 4
  %8 = bitcast [50 x i32]* %1 to i8*
  call void @llvm.memset.p0i8.i64(i8* align 16 %8, i8 0, i64 200, i1 false)
  %9 = bitcast [50 x i32]* %2 to i8*
  call void @llvm.memset.p0i8.i64(i8* align 16 %9, i8 0, i64 200, i1 false)
  %10 = call i32 (i8*, ...) @__isoc99_scanf(i8* getelementptr inbounds ([5 x i8], [5 x i8]* @.str, i64 0, i64 0), i32* %5, i32* %6)
  store i32 0, i32* %3, align 4
  br label %11

11:                                               ; preds = %20, %0
  %12 = load i32, i32* %3, align 4
  %13 = load i32, i32* %5, align 4
  %14 = icmp slt i32 %12, %13
  br i1 %14, label %15, label %23

15:                                               ; preds = %11
  %16 = load i32, i32* %3, align 4
  %17 = sext i32 %16 to i64
  %18 = getelementptr inbounds [50 x i32], [50 x i32]* %1, i64 0, i64 %17
  %19 = call i32 (i8*, ...) @__isoc99_scanf(i8* getelementptr inbounds ([3 x i8], [3 x i8]* @.str.1, i64 0, i64 0), i32* %18)
  br label %20

20:                                               ; preds = %15
  %21 = load i32, i32* %3, align 4
  %22 = add nsw i32 %21, 1
  store i32 %22, i32* %3, align 4
  br label %11

23:                                               ; preds = %11
  store i32 0, i32* %3, align 4
  br label %24

24:                                               ; preds = %33, %23
  %25 = load i32, i32* %3, align 4
  %26 = load i32, i32* %6, align 4
  %27 = icmp slt i32 %25, %26
  br i1 %27, label %28, label %36

28:                                               ; preds = %24
  %29 = load i32, i32* %3, align 4
  %30 = sext i32 %29 to i64
  %31 = getelementptr inbounds [50 x i32], [50 x i32]* %2, i64 0, i64 %30
  %32 = call i32 (i8*, ...) @__isoc99_scanf(i8* getelementptr inbounds ([3 x i8], [3 x i8]* @.str.1, i64 0, i64 0), i32* %31)
  br label %33

33:                                               ; preds = %28
  %34 = load i32, i32* %3, align 4
  %35 = add nsw i32 %34, 1
  store i32 %35, i32* %3, align 4
  br label %24

36:                                               ; preds = %24
  store i32 0, i32* %3, align 4
  br label %37

37:                                               ; preds = %84, %36
  %38 = load i32, i32* %3, align 4
  %39 = load i32, i32* %5, align 4
  %40 = sub nsw i32 %39, 1
  %41 = icmp slt i32 %38, %40
  br i1 %41, label %42, label %87

42:                                               ; preds = %37
  store i32 0, i32* %4, align 4
  br label %43

43:                                               ; preds = %80, %42
  %44 = load i32, i32* %4, align 4
  %45 = load i32, i32* %5, align 4
  %46 = load i32, i32* %3, align 4
  %47 = sub nsw i32 %45, %46
  %48 = sub nsw i32 %47, 1
  %49 = icmp slt i32 %44, %48
  br i1 %49, label %50, label %83

50:                                               ; preds = %43
  %51 = load i32, i32* %4, align 4
  %52 = sext i32 %51 to i64
  %53 = getelementptr inbounds [50 x i32], [50 x i32]* %1, i64 0, i64 %52
  %54 = load i32, i32* %53, align 4
  %55 = load i32, i32* %4, align 4
  %56 = add nsw i32 %55, 1
  %57 = sext i32 %56 to i64
  %58 = getelementptr inbounds [50 x i32], [50 x i32]* %1, i64 0, i64 %57
  %59 = load i32, i32* %58, align 4
  %60 = icmp sgt i32 %54, %59
  br i1 %60, label %61, label %79

61:                                               ; preds = %50
  %62 = load i32, i32* %4, align 4
  %63 = sext i32 %62 to i64
  %64 = getelementptr inbounds [50 x i32], [50 x i32]* %1, i64 0, i64 %63
  %65 = load i32, i32* %64, align 4
  store i32 %65, i32* %7, align 4
  %66 = load i32, i32* %4, align 4
  %67 = add nsw i32 %66, 1
  %68 = sext i32 %67 to i64
  %69 = getelementptr inbounds [50 x i32], [50 x i32]* %1, i64 0, i64 %68
  %70 = load i32, i32* %69, align 4
  %71 = load i32, i32* %4, align 4
  %72 = sext i32 %71 to i64
  %73 = getelementptr inbounds [50 x i32], [50 x i32]* %1, i64 0, i64 %72
  store i32 %70, i32* %73, align 4
  %74 = load i32, i32* %7, align 4
  %75 = load i32, i32* %4, align 4
  %76 = add nsw i32 %75, 1
  %77 = sext i32 %76 to i64
  %78 = getelementptr inbounds [50 x i32], [50 x i32]* %1, i64 0, i64 %77
  store i32 %74, i32* %78, align 4
  br label %79

79:                                               ; preds = %61, %50
  br label %80

80:                                               ; preds = %79
  %81 = load i32, i32* %4, align 4
  %82 = add nsw i32 %81, 1
  store i32 %82, i32* %4, align 4
  br label %43

83:                                               ; preds = %43
  br label %84

84:                                               ; preds = %83
  %85 = load i32, i32* %3, align 4
  %86 = add nsw i32 %85, 1
  store i32 %86, i32* %3, align 4
  br label %37

87:                                               ; preds = %37
  store i32 0, i32* %3, align 4
  br label %88

88:                                               ; preds = %135, %87
  %89 = load i32, i32* %3, align 4
  %90 = load i32, i32* %6, align 4
  %91 = sub nsw i32 %90, 1
  %92 = icmp slt i32 %89, %91
  br i1 %92, label %93, label %138

93:                                               ; preds = %88
  store i32 0, i32* %4, align 4
  br label %94

94:                                               ; preds = %131, %93
  %95 = load i32, i32* %4, align 4
  %96 = load i32, i32* %6, align 4
  %97 = load i32, i32* %3, align 4
  %98 = sub nsw i32 %96, %97
  %99 = sub nsw i32 %98, 1
  %100 = icmp slt i32 %95, %99
  br i1 %100, label %101, label %134

101:                                              ; preds = %94
  %102 = load i32, i32* %4, align 4
  %103 = sext i32 %102 to i64
  %104 = getelementptr inbounds [50 x i32], [50 x i32]* %2, i64 0, i64 %103
  %105 = load i32, i32* %104, align 4
  %106 = load i32, i32* %4, align 4
  %107 = add nsw i32 %106, 1
  %108 = sext i32 %107 to i64
  %109 = getelementptr inbounds [50 x i32], [50 x i32]* %2, i64 0, i64 %108
  %110 = load i32, i32* %109, align 4
  %111 = icmp sgt i32 %105, %110
  br i1 %111, label %112, label %130

112:                                              ; preds = %101
  %113 = load i32, i32* %4, align 4
  %114 = sext i32 %113 to i64
  %115 = getelementptr inbounds [50 x i32], [50 x i32]* %2, i64 0, i64 %114
  %116 = load i32, i32* %115, align 4
  store i32 %116, i32* %7, align 4
  %117 = load i32, i32* %4, align 4
  %118 = add nsw i32 %117, 1
  %119 = sext i32 %118 to i64
  %120 = getelementptr inbounds [50 x i32], [50 x i32]* %2, i64 0, i64 %119
  %121 = load i32, i32* %120, align 4
  %122 = load i32, i32* %4, align 4
  %123 = sext i32 %122 to i64
  %124 = getelementptr inbounds [50 x i32], [50 x i32]* %2, i64 0, i64 %123
  store i32 %121, i32* %124, align 4
  %125 = load i32, i32* %7, align 4
  %126 = load i32, i32* %4, align 4
  %127 = add nsw i32 %126, 1
  %128 = sext i32 %127 to i64
  %129 = getelementptr inbounds [50 x i32], [50 x i32]* %2, i64 0, i64 %128
  store i32 %125, i32* %129, align 4
  br label %130

130:                                              ; preds = %112, %101
  br label %131

131:                                              ; preds = %130
  %132 = load i32, i32* %4, align 4
  %133 = add nsw i32 %132, 1
  store i32 %133, i32* %4, align 4
  br label %94

134:                                              ; preds = %94
  br label %135

135:                                              ; preds = %134
  %136 = load i32, i32* %3, align 4
  %137 = add nsw i32 %136, 1
  store i32 %137, i32* %3, align 4
  br label %88

138:                                              ; preds = %88
  store i32 0, i32* %3, align 4
  br label %139

139:                                              ; preds = %149, %138
  %140 = load i32, i32* %3, align 4
  %141 = load i32, i32* %5, align 4
  %142 = icmp slt i32 %140, %141
  br i1 %142, label %143, label %152

143:                                              ; preds = %139
  %144 = load i32, i32* %3, align 4
  %145 = sext i32 %144 to i64
  %146 = getelementptr inbounds [50 x i32], [50 x i32]* %1, i64 0, i64 %145
  %147 = load i32, i32* %146, align 4
  %148 = call i32 (i8*, ...) @printf(i8* getelementptr inbounds ([4 x i8], [4 x i8]* @.str.2, i64 0, i64 0), i32 %147)
  br label %149

149:                                              ; preds = %143
  %150 = load i32, i32* %3, align 4
  %151 = add nsw i32 %150, 1
  store i32 %151, i32* %3, align 4
  br label %139

152:                                              ; preds = %139
  %153 = getelementptr inbounds [50 x i32], [50 x i32]* %2, i64 0, i64 0
  %154 = load i32, i32* %153, align 16
  %155 = call i32 (i8*, ...) @printf(i8* getelementptr inbounds ([3 x i8], [3 x i8]* @.str.1, i64 0, i64 0), i32 %154)
  store i32 1, i32* %3, align 4
  br label %156

156:                                              ; preds = %166, %152
  %157 = load i32, i32* %3, align 4
  %158 = load i32, i32* %6, align 4
  %159 = icmp slt i32 %157, %158
  br i1 %159, label %160, label %169

160:                                              ; preds = %156
  %161 = load i32, i32* %3, align 4
  %162 = sext i32 %161 to i64
  %163 = getelementptr inbounds [50 x i32], [50 x i32]* %2, i64 0, i64 %162
  %164 = load i32, i32* %163, align 4
  %165 = call i32 (i8*, ...) @printf(i8* getelementptr inbounds ([4 x i8], [4 x i8]* @.str.3, i64 0, i64 0), i32 %164)
  br label %166

166:                                              ; preds = %160
  %167 = load i32, i32* %3, align 4
  %168 = add nsw i32 %167, 1
  store i32 %168, i32* %3, align 4
  br label %156

169:                                              ; preds = %156
  %170 = call i32 (i8*, ...) @printf(i8* getelementptr inbounds ([2 x i8], [2 x i8]* @.str.4, i64 0, i64 0))
  ret void
}

; Function Attrs: argmemonly nounwind willreturn
declare void @llvm.memset.p0i8.i64(i8* nocapture writeonly, i8, i64, i1 immarg) #1

declare dso_local i32 @__isoc99_scanf(i8*, ...) #2

declare dso_local i32 @printf(i8*, ...) #2


!llvm.module.flags = !{!0}
!llvm.ident = !{!1}

!0 = !{i32 1, !"wchar_size", i32 4}
!1 = !{!"clang version 10.0.0-4ubuntu1 "}
